target datalayout = "e-m:e-p270:32:32-p271:32:32-p272:64:64-i64:64-i128:128-f80:128-n8:16:32:64-S128"
target triple = "x86_64-pc-linux-gnu"

; Function Attrs: nounwind sspstrong uwtable
define internal i64 @group_iterate(i64 noundef %0) #0 {
  %2 = alloca i64, align 8
  %3 = alloca ptr, align 8
  store i64 %0, ptr %2, align 8, !tbaa !6
  call void @llvm.lifetime.start.p0(i64 8, ptr %3) #19
  call void @setgrent()
  br label %4

4:                                                ; preds = %7, %1
  %5 = call ptr @getgrent()
  store ptr %5, ptr %3, align 8, !tbaa !21
  %6 = icmp ne ptr %5, null
  br i1 %6, label %7, label %11

7:                                                ; preds = %4
  %8 = load ptr, ptr %3, align 8, !tbaa !21
  %9 = call i64 @setup_group(ptr noundef %8)
  %10 = call i64 @rb_yield(i64 noundef %9)
  br label %4, !llvm.loop !55

11:                                               ; preds = %4
  call void @llvm.lifetime.end.p0(i64 8, ptr %3) #19
  ret i64 4
}