; Function Attrs: nounwind sspstrong uwtable
define internal noundef i64 @group_iterate(i64 %0) #0 {
  tail call void @setgrent() #13
  %2 = tail call ptr @getgrent() #13
  %.not1 = icmp eq ptr %2, null
  br i1 %.not1, label %._crit_edge, label %.lr.ph

.lr.ph:                                           ; preds = %1, %.lr.ph
  %3 = phi ptr [ %6, %.lr.ph ], [ %2, %1 ]
  %4 = tail call fastcc i64 @setup_group(ptr noundef %3)
  %5 = tail call i64 @rb_yield(i64 noundef %4) #13
  %6 = tail call ptr @getgrent() #13
  %.not = icmp eq ptr %6, null
  br i1 %.not, label %._crit_edge, label %.lr.ph, !llvm.loop !33

._crit_edge:                                      ; preds = %.lr.ph, %1
  ret i64 4
}